; Function Attrs: mustprogress uwtable
define internal void @_ZL33cvImageWidget_get_preferred_widthP10_GtkWidgetPiS1_(ptr noundef %0, ptr noundef writeonly captures(none) %1, ptr noundef writeonly captures(none) %2) #3 {
  %.not = icmp eq ptr %0, null
  br i1 %.not, label %4, label %5, !prof !60

4:                                                ; preds = %3
  tail call void @g_return_if_fail_warning(ptr noundef null, ptr noundef nonnull @__PRETTY_FUNCTION__._ZL33cvImageWidget_get_preferred_widthP10_GtkWidgetPiS1_, ptr noundef nonnull @.str.20)
  br label %43

5:                                                ; preds = %3
  %6 = load i64, ptr @_ZZ22cvImageWidget_get_typevE10image_type, align 8, !tbaa !3
  %.not.i = icmp eq i64 %6, 0
  br i1 %.not.i, label %7, label %_Z22cvImageWidget_get_typev.exit

7:                                                ; preds = %5
  %8 = tail call i64 @gtk_widget_get_type() #30
  %9 = tail call i64 @g_type_register_static_simple(i64 noundef %8, ptr noundef nonnull @.str.2, i32 noundef 824, ptr noundef nonnull @_ZL24cvImageWidget_class_initPvS_, i32 noundef 56, ptr noundef nonnull @_ZL18cvImageWidget_initP14_GTypeInstancePv, i32 noundef 0)
  store i64 %9, ptr @_ZZ22cvImageWidget_get_typevE10image_type, align 8, !tbaa !3
  br label %_Z22cvImageWidget_get_typev.exit

_Z22cvImageWidget_get_typev.exit:                 ; preds = %5, %7
  %10 = phi i64 [ %9, %7 ], [ %6, %5 ]
  %11 = load ptr, ptr %0, align 8, !tbaa !172
  %.not37 = icmp eq ptr %11, null
  br i1 %.not37, label %15, label %12

12:                                               ; preds = %_Z22cvImageWidget_get_typev.exit
  %13 = load i64, ptr %11, align 8, !tbaa !173
  %14 = icmp eq i64 %13, %10
  br i1 %14, label %.critedge, label %15

15:                                               ; preds = %12, %_Z22cvImageWidget_get_typev.exit
  %16 = tail call i32 @g_type_check_instance_is_a(ptr noundef nonnull %0, i64 noundef %10) #36
  %17 = icmp eq i32 %16, 0
  br i1 %17, label %18, label %.critedge, !prof !60

18:                                               ; preds = %15
  tail call void @g_return_if_fail_warning(ptr noundef null, ptr noundef nonnull @__PRETTY_FUNCTION__._ZL33cvImageWidget_get_preferred_widthP10_GtkWidgetPiS1_, ptr noundef nonnull @.str.21)
  br label %43

.critedge:                                        ; preds = %12, %15
  %.not.i44 = icmp eq i64 %10, 0
  br i1 %.not.i44, label %19, label %_Z22cvImageWidget_get_typev.exit45

19:                                               ; preds = %.critedge
  %20 = tail call i64 @gtk_widget_get_type() #30
  %21 = tail call i64 @g_type_register_static_simple(i64 noundef %20, ptr noundef nonnull @.str.2, i32 noundef 824, ptr noundef nonnull @_ZL24cvImageWidget_class_initPvS_, i32 noundef 56, ptr noundef nonnull @_ZL18cvImageWidget_initP14_GTypeInstancePv, i32 noundef 0)
  store i64 %21, ptr @_ZZ22cvImageWidget_get_typevE10image_type, align 8, !tbaa !3
  br label %_Z22cvImageWidget_get_typev.exit45

_Z22cvImageWidget_get_typev.exit45:               ; preds = %.critedge, %19
  %22 = phi i64 [ %21, %19 ], [ %10, %.critedge ]
  %23 = tail call ptr @g_type_check_instance_cast(ptr noundef nonnull %0, i64 noundef %22)
  %24 = getelementptr inbounds nuw i8, ptr %23, i64 32
  %25 = load ptr, ptr %24, align 8, !tbaa !81
  %.not40 = icmp eq ptr %25, null
  br i1 %.not40, label %36, label %26

26:                                               ; preds = %_Z22cvImageWidget_get_typev.exit45
  %27 = getelementptr inbounds nuw i8, ptr %23, i64 48
  %28 = load i32, ptr %27, align 8, !tbaa !13
  %29 = and i32 %28, 1
  %.not41.not = icmp eq i32 %29, 0
  br i1 %.not41.not, label %30, label %33

30:                                               ; preds = %26
  %31 = tail call ptr @gtk_widget_get_window(ptr noundef nonnull %0)
  %32 = tail call i32 @gdk_window_get_width(ptr noundef %31)
  br label %36

33:                                               ; preds = %26
  %34 = getelementptr inbounds nuw i8, ptr %25, i64 36
  %35 = load i32, ptr %34, align 4, !tbaa !59
  br label %36

36:                                               ; preds = %_Z22cvImageWidget_get_typev.exit45, %30, %33
  %storemerge = phi i32 [ %32, %30 ], [ %35, %33 ], [ 320, %_Z22cvImageWidget_get_typev.exit45 ]
  store i32 %storemerge, ptr %1, align 4, !tbaa !36
  %37 = getelementptr inbounds nuw i8, ptr %23, i64 40
  %38 = load ptr, ptr %37, align 8, !tbaa !80
  %.not42 = icmp eq ptr %38, null
  br i1 %.not42, label %42, label %39

39:                                               ; preds = %36
  %40 = getelementptr inbounds nuw i8, ptr %38, i64 36
  %41 = load i32, ptr %40, align 4, !tbaa !59
  %. = tail call i32 @llvm.smax.i32(i32 %storemerge, i32 %41)
  br label %42

42:                                               ; preds = %36, %39
  %storemerge43 = phi i32 [ %., %39 ], [ %storemerge, %36 ]
  store i32 %storemerge43, ptr %2, align 4, !tbaa !36
  br label %43

43:                                               ; preds = %42, %18, %4
  ret void
}